(lp0
ccopy_reg
_reconstructor
p1
(cvisualization_msgs.msg._Marker
Marker
p2
c__builtin__
object
p3
Ntp4
Rp5
(lp6
g1
(cstd_msgs.msg._Header
Header
p7
g3
Ntp8
Rp9
(lp10
I0
ag1
(crospy.rostime
Time
p11
g3
Ntp12
Rp13
(lp14
I0
aI0
abaS'base_link'
p15
abaS''
p16
aI0
aI0
aI0
ag1
(cgeometry_msgs.msg._Pose
Pose
p17
g3
Ntp18
Rp19
(lp20
g1
(cgeometry_msgs.msg._Point
Point
p21
g3
Ntp22
Rp23
(lp24
F-0.11971448009835449
aF-0.012895608850431575
aF1.3639902020315988
abag1
(cgeometry_msgs.msg._Quaternion
Quaternion
p25
g3
Ntp26
Rp27
(lp28
F0.5000128351231269
aF-0.4998951241784408
aF-0.49994832667714023
aF0.5001436795436701
ababag1
(cgeometry_msgs.msg._Vector3
Vector3
p29
g3
Ntp30
Rp31
(lp32
F0.1
aF0.01
aF0.01
abag1
(cstd_msgs.msg._ColorRGBA
ColorRGBA
p33
g3
Ntp34
Rp35
(lp36
I0
aI0
aI1
aI1
abag1
(cgenpy.rostime
Duration
p37
g3
Ntp38
Rp39
(lp40
I0
aI0
abaI00
a(lp41
a(lp42
ag16
ag16
aI00
abag1
(g2
g3
Ntp43
Rp44
(lp45
g1
(g7
g3
Ntp46
Rp47
(lp48
I0
ag1
(g11
g3
Ntp49
Rp50
(lp51
I0
aI0
abag15
abag16
aI1
aI0
aI0
ag1
(g17
g3
Ntp52
Rp53
(lp54
g1
(g21
g3
Ntp55
Rp56
(lp57
F-0.11995950222814268
aF0.04176964868373025
aF1.4959203769320202
abag1
(g25
g3
Ntp58
Rp59
(lp60
F0.27073184062342176
aF-0.6532541048167393
aF-0.27046882662061644
aF0.653306940755417
ababag1
(g29
g3
Ntp61
Rp62
(lp63
F0.1
aF0.01
aF0.01
abag1
(g33
g3
Ntp64
Rp65
(lp66
I0
aI0
aI1
aI1
abag1
(g37
g3
Ntp67
Rp68
(lp69
I0
aI0
abaI00
a(lp70
a(lp71
ag16
ag16
aI00
abag1
(g2
g3
Ntp72
Rp73
(lp74
g1
(g7
g3
Ntp75
Rp76
(lp77
I0
ag1
(g11
g3
Ntp78
Rp79
(lp80
I0
aI0
abag15
abag16
aI2
aI0
aI0
ag1
(g17
g3
Ntp81
Rp82
(lp83
g1
(g21
g3
Ntp84
Rp85
(lp86
F-0.11968329151489503
aF0.1738229987047221
aF1.5506102362505967
abag1
(g25
g3
Ntp87
Rp88
(lp89
F-9.798200437549599e-05
aF-0.707053637323981
aF-0.00013353781501696378
aF0.7071599016588166
ababag1
(g29
g3
Ntp90
Rp91
(lp92
F0.1
aF0.01
aF0.01
abag1
(g33
g3
Ntp93
Rp94
(lp95
I0
aI0
aI1
aI1
abag1
(g37
g3
Ntp96
Rp97
(lp98
I0
aI0
abaI00
a(lp99
a(lp100
ag16
ag16
aI00
abag1
(g2
g3
Ntp101
Rp102
(lp103
g1
(g7
g3
Ntp104
Rp105
(lp106
I0
ag1
(g11
g3
Ntp107
Rp108
(lp109
I0
aI0
abag15
abag16
aI3
aI0
aI0
ag1
(g17
g3
Ntp110
Rp111
(lp112
g1
(g21
g3
Ntp113
Rp114
(lp115
F-0.11993335436474088
aF0.3058142581544644
aF1.4959011897938355
abag1
(g25
g3
Ntp116
Rp117
(lp118
F-0.2707504678268865
aF-0.6532821845178841
aF0.27047583720879365
aF0.6532682397371429
ababag1
(g29
g3
Ntp119
Rp120
(lp121
F0.1
aF0.01
aF0.01
abag1
(g33
g3
Ntp122
Rp123
(lp124
I0
aI0
aI1
aI1
abag1
(g37
g3
Ntp125
Rp126
(lp127
I0
aI0
abaI00
a(lp128
a(lp129
ag16
ag16
aI00
abag1
(g2
g3
Ntp130
Rp131
(lp132
g1
(g7
g3
Ntp133
Rp134
(lp135
I0
ag1
(g11
g3
Ntp136
Rp137
(lp138
I0
aI0
abag15
abag16
aI4
aI0
aI0
ag1
(g17
g3
Ntp139
Rp140
(lp141
g1
(g21
g3
Ntp142
Rp143
(lp144
F-0.11982699171503126
aF0.36046775535329867
aF1.363943262338897
abag1
(g25
g3
Ntp145
Rp146
(lp147
F-0.5000853976174823
aF-0.49994518270815275
aF0.49992476020314613
aF0.5000446415196379
ababag1
(g29
g3
Ntp148
Rp149
(lp150
F0.1
aF0.01
aF0.01
abag1
(g33
g3
Ntp151
Rp152
(lp153
I0
aI0
aI1
aI1
abag1
(g37
g3
Ntp154
Rp155
(lp156
I0
aI0
abaI00
a(lp157
a(lp158
ag16
ag16
aI00
abag1
(g2
g3
Ntp159
Rp160
(lp161
g1
(g7
g3
Ntp162
Rp163
(lp164
I0
ag1
(g11
g3
Ntp165
Rp166
(lp167
I0
aI0
abag15
abag16
aI5
aI0
aI0
ag1
(g17
g3
Ntp168
Rp169
(lp170
g1
(g21
g3
Ntp171
Rp172
(lp173
F-0.119993284386549
aF0.3057254521435016
aF1.2319495066430495
abag1
(g25
g3
Ntp174
Rp175
(lp176
F-0.6532784837777141
aF-0.2706791883072625
aF0.6533101688039675
aF0.2704548446372216
ababag1
(g29
g3
Ntp177
Rp178
(lp179
F0.1
aF0.01
aF0.01
abag1
(g33
g3
Ntp180
Rp181
(lp182
I0
aI0
aI1
aI1
abag1
(g37
g3
Ntp183
Rp184
(lp185
I0
aI0
abaI00
a(lp186
a(lp187
ag16
ag16
aI00
abag1
(g2
g3
Ntp188
Rp189
(lp190
g1
(g7
g3
Ntp191
Rp192
(lp193
I0
ag1
(g11
g3
Ntp194
Rp195
(lp196
I0
aI0
abag15
abag16
aI6
aI0
aI0
ag1
(g17
g3
Ntp197
Rp198
(lp199
g1
(g21
g3
Ntp200
Rp201
(lp202
F-0.11991610004247975
aF0.1738300139185045
aF1.177289895280381
abag1
(g25
g3
Ntp203
Rp204
(lp205
F-0.7071292547670327
aF5.932867135310735e-05
aF0.7070842966723115
aF0.00010455693249553075
ababag1
(g29
g3
Ntp206
Rp207
(lp208
F0.1
aF0.01
aF0.01
abag1
(g33
g3
Ntp209
Rp210
(lp211
I0
aI0
aI1
aI1
abag1
(g37
g3
Ntp212
Rp213
(lp214
I0
aI0
abaI00
a(lp215
a(lp216
ag16
ag16
aI00
abag1
(g2
g3
Ntp217
Rp218
(lp219
g1
(g7
g3
Ntp220
Rp221
(lp222
I0
ag1
(g11
g3
Ntp223
Rp224
(lp225
I0
aI0
abag15
abag16
aI7
aI0
aI0
ag1
(g17
g3
Ntp226
Rp227
(lp228
g1
(g21
g3
Ntp229
Rp230
(lp231
F-0.11996382868672918
aF0.041850724534144484
aF1.2319600868255678
abag1
(g25
g3
Ntp232
Rp233
(lp234
F0.6532519199267678
aF-0.27071387510277856
aF-0.6533145539257924
aF0.27047369662791926
ababag1
(g29
g3
Ntp235
Rp236
(lp237
F0.1
aF0.01
aF0.01
abag1
(g33
g3
Ntp238
Rp239
(lp240
I0
aI0
aI1
aI1
abag1
(g37
g3
Ntp241
Rp242
(lp243
I0
aI0
abaI00
a(lp244
a(lp245
ag16
ag16
aI00
abag1
(g2
g3
Ntp246
Rp247
(lp248
g1
(g7
g3
Ntp249
Rp250
(lp251
I0
ag1
(g11
g3
Ntp252
Rp253
(lp254
I0
aI0
abag15
abag16
aI8
aI0
aI0
ag1
(g17
g3
Ntp255
Rp256
(lp257
g1
(g21
g3
Ntp258
Rp259
(lp260
F-0.08458946057235797
aF-0.012839328706098177
aF1.448737788401823
abag1
(g25
g3
Ntp261
Rp262
(lp263
F0.2704502242542982
aF-0.27053273630537145
aF-0.6533711947368782
aF0.6532800292952728
ababag1
(g29
g3
Ntp264
Rp265
(lp266
F0.1
aF0.01
aF0.01
abag1
(g33
g3
Ntp267
Rp268
(lp269
I0
aI1
aI1
aI1
abag1
(g37
g3
Ntp270
Rp271
(lp272
I0
aI0
abaI00
a(lp273
a(lp274
ag16
ag16
aI00
abag1
(g2
g3
Ntp275
Rp276
(lp277
g1
(g7
g3
Ntp278
Rp279
(lp280
I0
ag1
(g11
g3
Ntp281
Rp282
(lp283
I0
aI0
abag15
abag16
aI9
aI0
aI0
ag1
(g17
g3
Ntp284
Rp285
(lp286
g1
(g21
g3
Ntp287
Rp288
(lp289
F0.008493384988102447
aF0.04180573874653969
aF1.5420278396573228
abag1
(g25
g3
Ntp290
Rp291
(lp292
F0.14636808052855477
aF-0.35358960374648635
aF-0.35370446356283936
aF0.8534892674079232
ababag1
(g29
g3
Ntp293
Rp294
(lp295
F0.1
aF0.01
aF0.01
abag1
(g33
g3
Ntp296
Rp297
(lp298
I0
aI1
aI1
aI1
abag1
(g37
g3
Ntp299
Rp300
(lp301
I0
aI0
abaI00
a(lp302
a(lp303
ag16
ag16
aI00
abag1
(g2
g3
Ntp304
Rp305
(lp306
g1
(g7
g3
Ntp307
Rp308
(lp309
I0
ag1
(g11
g3
Ntp310
Rp311
(lp312
I0
aI0
abag15
abag16
aI10
aI0
aI0
ag1
(g17
g3
Ntp313
Rp314
(lp315
g1
(g21
g3
Ntp316
Rp317
(lp318
F0.047098381259104455
aF0.173796632163563
aF1.58069106591132
abag1
(g25
g3
Ntp319
Rp320
(lp321
F7.882575082726288e-05
aF-0.38275233019945937
aF0.00012793721587356233
aF0.9238509788626377
ababag1
(g29
g3
Ntp322
Rp323
(lp324
F0.1
aF0.01
aF0.01
abag1
(g33
g3
Ntp325
Rp326
(lp327
I0
aI1
aI1
aI1
abag1
(g37
g3
Ntp328
Rp329
(lp330
I0
aI0
abaI00
a(lp331
a(lp332
ag16
ag16
aI00
abag1
(g2
g3
Ntp333
Rp334
(lp335
g1
(g7
g3
Ntp336
Rp337
(lp338
I0
ag1
(g11
g3
Ntp339
Rp340
(lp341
I0
aI0
abag15
abag16
aI11
aI0
aI0
ag1
(g17
g3
Ntp342
Rp343
(lp344
g1
(g21
g3
Ntp345
Rp346
(lp347
F0.008762861356569486
aF0.3057738574108674
aF1.5420218736730953
abag1
(g25
g3
Ntp348
Rp349
(lp350
F-0.14645434355663814
aF-0.35346796680724174
aF0.35348200659590995
aF0.8536170058682512
ababag1
(g29
g3
Ntp351
Rp352
(lp353
F0.1
aF0.01
aF0.01
abag1
(g33
g3
Ntp354
Rp355
(lp356
I0
aI1
aI1
aI1
abag1
(g37
g3
Ntp357
Rp358
(lp359
I0
aI0
abaI00
a(lp360
a(lp361
ag16
ag16
aI00
abag1
(g2
g3
Ntp362
Rp363
(lp364
g1
(g7
g3
Ntp365
Rp366
(lp367
I0
ag1
(g11
g3
Ntp368
Rp369
(lp370
I0
aI0
abag15
abag16
aI12
aI0
aI0
ag1
(g17
g3
Ntp371
Rp372
(lp373
g1
(g21
g3
Ntp374
Rp375
(lp376
F-0.08478422364304916
aF0.36040560131054394
aF1.4487243406044514
abag1
(g25
g3
Ntp377
Rp378
(lp379
F-0.27050693554843086
aF-0.2706113220517299
aF0.6534104247614936
aF0.6531847571787148
ababag1
(g29
g3
Ntp380
Rp381
(lp382
F0.1
aF0.01
aF0.01
abag1
(g33
g3
Ntp383
Rp384
(lp385
I0
aI1
aI1
aI1
abag1
(g37
g3
Ntp386
Rp387
(lp388
I0
aI0
abaI00
a(lp389
a(lp390
ag16
ag16
aI00
abag1
(g2
g3
Ntp391
Rp392
(lp393
g1
(g7
g3
Ntp394
Rp395
(lp396
I0
ag1
(g11
g3
Ntp397
Rp398
(lp399
I0
aI0
abag15
abag16
aI13
aI0
aI0
ag1
(g17
g3
Ntp400
Rp401
(lp402
g1
(g21
g3
Ntp403
Rp404
(lp405
F-0.17808366175618298
aF0.30582670440805704
aF1.3553706054235468
abag1
(g25
g3
Ntp406
Rp407
(lp408
F-0.3535937220094033
aF-0.14639428587609427
aF0.8534810460902408
aF0.35370933940606314
ababag1
(g29
g3
Ntp409
Rp410
(lp411
F0.1
aF0.01
aF0.01
abag1
(g33
g3
Ntp412
Rp413
(lp414
I0
aI1
aI1
aI1
abag1
(g37
g3
Ntp415
Rp416
(lp417
I0
aI0
abaI00
a(lp418
a(lp419
ag16
ag16
aI00
abag1
(g2
g3
Ntp420
Rp421
(lp422
g1
(g7
g3
Ntp423
Rp424
(lp425
I0
ag1
(g11
g3
Ntp426
Rp427
(lp428
I0
aI0
abag15
abag16
aI14
aI0
aI0
ag1
(g17
g3
Ntp429
Rp430
(lp431
g1
(g21
g3
Ntp432
Rp433
(lp434
F-0.21660166635708364
aF0.17386074572856222
aF1.3167371801626269
abag1
(g25
g3
Ntp435
Rp436
(lp437
F-0.38265704393178634
aF6.881219026267036e-05
aF0.9238904436575671
aF0.00017352951667247286
ababag1
(g29
g3
Ntp438
Rp439
(lp440
F0.1
aF0.01
aF0.01
abag1
(g33
g3
Ntp441
Rp442
(lp443
I0
aI1
aI1
aI1
abag1
(g37
g3
Ntp444
Rp445
(lp446
I0
aI0
abaI00
a(lp447
a(lp448
ag16
ag16
aI00
abag1
(g2
g3
Ntp449
Rp450
(lp451
g1
(g7
g3
Ntp452
Rp453
(lp454
I0
ag1
(g11
g3
Ntp455
Rp456
(lp457
I0
aI0
abag15
abag16
aI15
aI0
aI0
ag1
(g17
g3
Ntp458
Rp459
(lp460
g1
(g21
g3
Ntp461
Rp462
(lp463
F-0.17800644127295134
aF0.04177934760529016
aF1.355386633144675
abag1
(g25
g3
Ntp464
Rp465
(lp466
F0.35353016891260003
aF-0.14634669550298376
aF-0.8535451387781121
aF0.3536378945365426
ababag1
(g29
g3
Ntp467
Rp468
(lp469
F0.1
aF0.01
aF0.01
abag1
(g33
g3
Ntp470
Rp471
(lp472
I0
aI1
aI1
aI1
abag1
(g37
g3
Ntp473
Rp474
(lp475
I0
aI0
abaI00
a(lp476
a(lp477
ag16
ag16
aI00
abag1
(g2
g3
Ntp478
Rp479
(lp480
g1
(g7
g3
Ntp481
Rp482
(lp483
I0
ag1
(g11
g3
Ntp484
Rp485
(lp486
I0
aI0
abag15
abag16
aI16
aI0
aI0
ag1
(g17
g3
Ntp487
Rp488
(lp489
g1
(g21
g3
Ntp490
Rp491
(lp492
F5.812066455437142e-05
aF-0.012858145189037162
aF1.4838129657650947
abag1
(g25
g3
Ntp493
Rp494
(lp495
F-4.291696830912338e-05
aF4.292675609149409e-05
aF-0.7071779637775432
aF0.7070355888234165
ababag1
(g29
g3
Ntp496
Rp497
(lp498
F0.1
aF0.01
aF0.01
abag1
(g33
g3
Ntp499
Rp500
(lp501
I0
aI1
aI0
aI1
abag1
(g37
g3
Ntp502
Rp503
(lp504
I0
aI0
abaI00
a(lp505
a(lp506
ag16
ag16
aI00
abag1
(g2
g3
Ntp507
Rp508
(lp509
g1
(g7
g3
Ntp510
Rp511
(lp512
I0
ag1
(g11
g3
Ntp513
Rp514
(lp515
I0
aI0
abag15
abag16
aI17
aI0
aI0
ag1
(g17
g3
Ntp516
Rp517
(lp518
g1
(g21
g3
Ntp519
Rp520
(lp521
F0.13194478598710252
aF0.04184051712113428
aF1.4838035332014436
abag1
(g25
g3
Ntp522
Rp523
(lp524
F-3.786924883309916e-05
aF4.303174371521387e-05
aF-0.3825752373660526
aF0.9239243391471498
ababag1
(g29
g3
Ntp525
Rp526
(lp527
F0.1
aF0.01
aF0.01
abag1
(g33
g3
Ntp528
Rp529
(lp530
I0
aI1
aI0
aI1
abag1
(g37
g3
Ntp531
Rp532
(lp533
I0
aI0
abaI00
a(lp534
a(lp535
ag16
ag16
aI00
abag1
(g2
g3
Ntp536
Rp537
(lp538
g1
(g7
g3
Ntp539
Rp540
(lp541
I0
ag1
(g11
g3
Ntp542
Rp543
(lp544
I0
aI0
abag15
abag16
aI18
aI0
aI0
ag1
(g17
g3
Ntp545
Rp546
(lp547
g1
(g21
g3
Ntp548
Rp549
(lp550
F0.18674348154815854
aF0.1737388787135574
aF1.4838165561887173
abag1
(g25
g3
Ntp551
Rp552
(lp553
F-1.5079910366478837e-05
aF-9.615373621651824e-06
aF-0.00013480032636440178
aF0.9999999907545064
ababag1
(g29
g3
Ntp554
Rp555
(lp556
F0.1
aF0.01
aF0.01
abag1
(g33
g3
Ntp557
Rp558
(lp559
I0
aI1
aI0
aI1
abag1
(g37
g3
Ntp560
Rp561
(lp562
I0
aI0
abaI00
a(lp563
a(lp564
ag16
ag16
aI00
abag1
(g2
g3
Ntp565
Rp566
(lp567
g1
(g7
g3
Ntp568
Rp569
(lp570
I0
ag1
(g11
g3
Ntp571
Rp572
(lp573
I0
aI0
abag15
abag16
aI19
aI0
aI0
ag1
(g17
g3
Ntp574
Rp575
(lp576
g1
(g21
g3
Ntp577
Rp578
(lp579
F0.13183708392171076
aF0.30579550984180426
aF1.483814968393406
abag1
(g25
g3
Ntp580
Rp581
(lp582
F4.218449558258901e-05
aF1.1669702998830362e-05
aF0.38277689226791356
aF0.9238408135766705
ababag1
(g29
g3
Ntp583
Rp584
(lp585
F0.1
aF0.01
aF0.01
abag1
(g33
g3
Ntp586
Rp587
(lp588
I0
aI1
aI0
aI1
abag1
(g37
g3
Ntp589
Rp590
(lp591
I0
aI0
abaI00
a(lp592
a(lp593
ag16
ag16
aI00
abag1
(g2
g3
Ntp594
Rp595
(lp596
g1
(g7
g3
Ntp597
Rp598
(lp599
I0
ag1
(g11
g3
Ntp600
Rp601
(lp602
I0
aI0
abag15
abag16
aI20
aI0
aI0
ag1
(g17
g3
Ntp603
Rp604
(lp605
g1
(g21
g3
Ntp606
Rp607
(lp608
F0.00014582153050015926
aF0.3604365518115203
aF1.4838129654648304
abag1
(g25
g3
Ntp609
Rp610
(lp611
F3.4961306725859494e-05
aF3.495229231914694e-05
aF0.7070144052323518
aF0.7071991433464749
ababag1
(g29
g3
Ntp612
Rp613
(lp614
F0.1
aF0.01
aF0.01
abag1
(g33
g3
Ntp615
Rp616
(lp617
I0
aI1
aI0
aI1
abag1
(g37
g3
Ntp618
Rp619
(lp620
I0
aI0
abaI00
a(lp621
a(lp622
ag16
ag16
aI00
abag1
(g2
g3
Ntp623
Rp624
(lp625
g1
(g7
g3
Ntp626
Rp627
(lp628
I0
ag1
(g11
g3
Ntp629
Rp630
(lp631
I0
aI0
abag15
abag16
aI21
aI0
aI0
ag1
(g17
g3
Ntp632
Rp633
(lp634
g1
(g21
g3
Ntp635
Rp636
(lp637
F-0.13196060896050577
aF0.30573966401744407
aF1.483821448353812
abag1
(g25
g3
Ntp638
Rp639
(lp640
F2.4631975015018347e-05
aF8.159424097836765e-08
aF0.9239218327131433
aF0.38258129388307205
ababag1
(g29
g3
Ntp641
Rp642
(lp643
F0.1
aF0.01
aF0.01
abag1
(g33
g3
Ntp644
Rp645
(lp646
I0
aI1
aI0
aI1
abag1
(g37
g3
Ntp647
Rp648
(lp649
I0
aI0
abaI00
a(lp650
a(lp651
ag16
ag16
aI00
abag1
(g2
g3
Ntp652
Rp653
(lp654
g1
(g7
g3
Ntp655
Rp656
(lp657
I0
ag1
(g11
g3
Ntp658
Rp659
(lp660
I0
aI0
abag15
abag16
aI22
aI0
aI0
ag1
(g17
g3
Ntp661
Rp662
(lp663
g1
(g21
g3
Ntp664
Rp665
(lp666
F-0.1867493740858935
aF0.17382921297710827
aF1.4838010660493934
abag1
(g25
g3
Ntp667
Rp668
(lp669
F-3.185641645980526e-05
aF4.52331367428737e-05
aF0.9999999927391643
aF0.00010705514207105801
ababag1
(g29
g3
Ntp670
Rp671
(lp672
F0.1
aF0.01
aF0.01
abag1
(g33
g3
Ntp673
Rp674
(lp675
I0
aI1
aI0
aI1
abag1
(g37
g3
Ntp676
Rp677
(lp678
I0
aI0
abaI00
a(lp679
a(lp680
ag16
ag16
aI00
abag1
(g2
g3
Ntp681
Rp682
(lp683
g1
(g7
g3
Ntp684
Rp685
(lp686
I0
ag1
(g11
g3
Ntp687
Rp688
(lp689
I0
aI0
abag15
abag16
aI23
aI0
aI0
ag1
(g17
g3
Ntp690
Rp691
(lp692
g1
(g21
g3
Ntp693
Rp694
(lp695
F-0.13205615728820946
aF0.0418500323814027
aF1.4837965653478802
abag1
(g25
g3
Ntp696
Rp697
(lp698
F7.295400816260841e-05
aF-6.136150227624635e-05
aF-0.9239380856868566
aF0.38254203001733744
ababag1
(g29
g3
Ntp699
Rp700
(lp701
F0.1
aF0.01
aF0.01
abag1
(g33
g3
Ntp702
Rp703
(lp704
I0
aI1
aI0
aI1
abag1
(g37
g3
Ntp705
Rp706
(lp707
I0
aI0
abaI00
a(lp708
a(lp709
ag16
ag16
aI00
abag1
(g2
g3
Ntp710
Rp711
(lp712
g1
(g7
g3
Ntp713
Rp714
(lp715
I0
ag1
(g11
g3
Ntp716
Rp717
(lp718
I0
aI0
abag15
abag16
aI24
aI0
aI0
ag1
(g17
g3
Ntp719
Rp720
(lp721
g1
(g21
g3
Ntp722
Rp723
(lp724
F0.08482817480937409
aF-0.012875465294795316
aF1.4486959529370869
abag1
(g25
g3
Ntp725
Rp726
(lp727
F-0.27058998843071086
aF0.2706563441639884
aF-0.6533244684655856
aF0.6532176822690982
ababag1
(g29
g3
Ntp728
Rp729
(lp730
F0.1
aF0.01
aF0.01
abag1
(g33
g3
Ntp731
Rp732
(lp733
I1
aI1
aI0
aI1
abag1
(g37
g3
Ntp734
Rp735
(lp736
I0
aI0
abaI00
a(lp737
a(lp738
ag16
ag16
aI00
abag1
(g2
g3
Ntp739
Rp740
(lp741
g1
(g7
g3
Ntp742
Rp743
(lp744
I0
ag1
(g11
g3
Ntp745
Rp746
(lp747
I0
aI0
abag15
abag16
aI25
aI0
aI0
ag1
(g17
g3
Ntp748
Rp749
(lp750
g1
(g21
g3
Ntp751
Rp752
(lp753
F0.1779550385181352
aF0.04184812648561072
aF1.3553953446962206
abag1
(g25
g3
Ntp754
Rp755
(lp756
F-0.14650166625555658
aF0.3535167006799274
aF-0.3534499339424522
aF0.8536019847216852
ababag1
(g29
g3
Ntp757
Rp758
(lp759
F0.1
aF0.01
aF0.01
abag1
(g33
g3
Ntp760
Rp761
(lp762
I1
aI1
aI0
aI1
abag1
(g37
g3
Ntp763
Rp764
(lp765
I0
aI0
abaI00
a(lp766
a(lp767
ag16
ag16
aI00
abag1
(g2
g3
Ntp768
Rp769
(lp770
g1
(g7
g3
Ntp771
Rp772
(lp773
I0
ag1
(g11
g3
Ntp774
Rp775
(lp776
I0
aI0
abag15
abag16
aI26
aI0
aI0
ag1
(g17
g3
Ntp777
Rp778
(lp779
g1
(g21
g3
Ntp780
Rp781
(lp782
F0.2166784854746136
aF0.17374090999882633
aF1.3167678510091045
abag1
(g25
g3
Ntp783
Rp784
(lp785
F6.46043711556221e-05
aF0.3825916709555836
aF-0.00010654833651023883
aF0.923917527590608
ababag1
(g29
g3
Ntp786
Rp787
(lp788
F0.1
aF0.01
aF0.01
abag1
(g33
g3
Ntp789
Rp790
(lp791
I1
aI1
aI0
aI1
abag1
(g37
g3
Ntp792
Rp793
(lp794
I0
aI0
abaI00
a(lp795
a(lp796
ag16
ag16
aI00
abag1
(g2
g3
Ntp797
Rp798
(lp799
g1
(g7
g3
Ntp800
Rp801
(lp802
I0
ag1
(g11
g3
Ntp803
Rp804
(lp805
I0
aI0
abag15
abag16
aI27
aI0
aI0
ag1
(g17
g3
Ntp806
Rp807
(lp808
g1
(g21
g3
Ntp809
Rp810
(lp811
F0.1780449141688496
aF0.30571872904642483
aF1.35541309631314
abag1
(g25
g3
Ntp812
Rp813
(lp814
F0.1464653030349583
aF0.35345870015381
aF0.3534357696418017
aF0.8536381077659104
ababag1
(g29
g3
Ntp815
Rp816
(lp817
F0.1
aF0.01
aF0.01
abag1
(g33
g3
Ntp818
Rp819
(lp820
I1
aI1
aI0
aI1
abag1
(g37
g3
Ntp821
Rp822
(lp823
I0
aI0
abaI00
a(lp824
a(lp825
ag16
ag16
aI00
abag1
(g2
g3
Ntp826
Rp827
(lp828
g1
(g7
g3
Ntp829
Rp830
(lp831
I0
ag1
(g11
g3
Ntp832
Rp833
(lp834
I0
aI0
abag15
abag16
aI28
aI0
aI0
ag1
(g17
g3
Ntp835
Rp836
(lp837
g1
(g21
g3
Ntp838
Rp839
(lp840
F0.08500112927159588
aF0.3604159666460047
aF1.4487036154087551
abag1
(g25
g3
Ntp841
Rp842
(lp843
F0.27068906332144943
aF0.27061063820696446
aF0.6531961954824178
aF0.6533238428946787
ababag1
(g29
g3
Ntp844
Rp845
(lp846
F0.1
aF0.01
aF0.01
abag1
(g33
g3
Ntp847
Rp848
(lp849
I1
aI1
aI0
aI1
abag1
(g37
g3
Ntp850
Rp851
(lp852
I0
aI0
abaI00
a(lp853
a(lp854
ag16
ag16
aI00
abag1
(g2
g3
Ntp855
Rp856
(lp857
g1
(g7
g3
Ntp858
Rp859
(lp860
I0
ag1
(g11
g3
Ntp861
Rp862
(lp863
I0
aI0
abag15
abag16
aI29
aI0
aI0
ag1
(g17
g3
Ntp864
Rp865
(lp866
g1
(g21
g3
Ntp867
Rp868
(lp869
F-0.008604455176003896
aF0.3057819733425603
aF1.5420200710610303
abag1
(g25
g3
Ntp870
Rp871
(lp872
F0.3535457100291171
aF0.14639803294717685
aF0.8535004930421892
aF0.3537088566122492
ababag1
(g29
g3
Ntp873
Rp874
(lp875
F0.1
aF0.01
aF0.01
abag1
(g33
g3
Ntp876
Rp877
(lp878
I1
aI1
aI0
aI1
abag1
(g37
g3
Ntp879
Rp880
(lp881
I0
aI0
abaI00
a(lp882
a(lp883
ag16
ag16
aI00
abag1
(g2
g3
Ntp884
Rp885
(lp886
g1
(g7
g3
Ntp887
Rp888
(lp889
I0
ag1
(g11
g3
Ntp890
Rp891
(lp892
I0
aI0
abag15
abag16
aI30
aI0
aI0
ag1
(g17
g3
Ntp893
Rp894
(lp895
g1
(g21
g3
Ntp896
Rp897
(lp898
F-0.047193209737482616
aF0.1737956349969285
aF1.5806838669482308
abag1
(g25
g3
Ntp899
Rp900
(lp901
F-0.382681900567926
aF-1.4003169670054565e-05
aF-0.9238801660058332
aF4.052980720800432e-05
ababag1
(g29
g3
Ntp902
Rp903
(lp904
F0.1
aF0.01
aF0.01
abag1
(g33
g3
Ntp905
Rp906
(lp907
I1
aI1
aI0
aI1
abag1
(g37
g3
Ntp908
Rp909
(lp910
I0
aI0
abaI00
a(lp911
a(lp912
ag16
ag16
aI00
abag1
(g2
g3
Ntp913
Rp914
(lp915
g1
(g7
g3
Ntp916
Rp917
(lp918
I0
ag1
(g11
g3
Ntp919
Rp920
(lp921
I0
aI0
abag15
abag16
aI31
aI0
aI0
ag1
(g17
g3
Ntp922
Rp923
(lp924
g1
(g21
g3
Ntp925
Rp926
(lp927
F-0.008533565921240764
aF0.04181428680736391
aF1.542029761408568
abag1
(g25
g3
Ntp928
Rp929
(lp930
F-0.3535086755235763
aF0.14644338269398427
aF-0.8536063036174986
aF0.35347168262702594
ababag1
(g29
g3
Ntp931
Rp932
(lp933
F0.1
aF0.01
aF0.01
abag1
(g33
g3
Ntp934
Rp935
(lp936
I1
aI1
aI0
aI1
abag1
(g37
g3
Ntp937
Rp938
(lp939
I0
aI0
abaI00
a(lp940
a(lp941
ag16
ag16
aI00
abag1
(g2
g3
Ntp942
Rp943
(lp944
g1
(g7
g3
Ntp945
Rp946
(lp947
I0
ag1
(g11
g3
Ntp948
Rp949
(lp950
I0
aI0
abag15
abag16
aI32
aI0
aI0
ag1
(g17
g3
Ntp951
Rp952
(lp953
g1
(g21
g3
Ntp954
Rp955
(lp956
F0.12002794622132357
aF-0.012830003195918177
aF1.3639248525495047
abag1
(g25
g3
Ntp957
Rp958
(lp959
F-0.5000444893139472
aF0.49995413210338235
aF-0.4999286863414319
aF0.5000726777903763
ababag1
(g29
g3
Ntp960
Rp961
(lp962
F0.1
aF0.01
aF0.01
abag1
(g33
g3
Ntp963
Rp964
(lp965
I1
aI0
aI0
aI1
abag1
(g37
g3
Ntp966
Rp967
(lp968
I0
aI0
abaI00
a(lp969
a(lp970
ag16
ag16
aI00
abag1
(g2
g3
Ntp971
Rp972
(lp973
g1
(g7
g3
Ntp974
Rp975
(lp976
I0
ag1
(g11
g3
Ntp977
Rp978
(lp979
I0
aI0
abag15
abag16
aI33
aI0
aI0
ag1
(g17
g3
Ntp980
Rp981
(lp982
g1
(g21
g3
Ntp983
Rp984
(lp985
F0.11989113909495396
aF0.04177416552893221
aF1.2319694386747784
abag1
(g25
g3
Ntp986
Rp987
(lp988
F-0.2705196849206823
aF0.6533196640180815
aF-0.2706762558497625
aF0.6532433552642306
ababag1
(g29
g3
Ntp989
Rp990
(lp991
F0.1
aF0.01
aF0.01
abag1
(g33
g3
Ntp992
Rp993
(lp994
I1
aI0
aI0
aI1
abag1
(g37
g3
Ntp995
Rp996
(lp997
I0
aI0
abaI00
a(lp998
a(lp999
ag16
ag16
aI00
abag1
(g2
g3
Ntp1000
Rp1001
(lp1002
g1
(g7
g3
Ntp1003
Rp1004
(lp1005
I0
ag1
(g11
g3
Ntp1006
Rp1007
(lp1008
I0
aI0
abag15
abag16
aI34
aI0
aI0
ag1
(g17
g3
Ntp1009
Rp1010
(lp1011
g1
(g21
g3
Ntp1012
Rp1013
(lp1014
F0.11989696449322901
aF0.17383749855221278
aF1.1772923467236573
abag1
(g25
g3
Ntp1015
Rp1016
(lp1017
F-7.230159494542872e-05
aF0.7071220250935897
aF0.00011691397363039907
aF0.7070915235888087
ababag1
(g29
g3
Ntp1018
Rp1019
(lp1020
F0.1
aF0.01
aF0.01
abag1
(g33
g3
Ntp1021
Rp1022
(lp1023
I1
aI0
aI0
aI1
abag1
(g37
g3
Ntp1024
Rp1025
(lp1026
I0
aI0
abaI00
a(lp1027
a(lp1028
ag16
ag16
aI00
abag1
(g2
g3
Ntp1029
Rp1030
(lp1031
g1
(g7
g3
Ntp1032
Rp1033
(lp1034
I0
ag1
(g11
g3
Ntp1035
Rp1036
(lp1037
I0
aI0
abag15
abag16
aI35
aI0
aI0
ag1
(g17
g3
Ntp1038
Rp1039
(lp1040
g1
(g21
g3
Ntp1041
Rp1042
(lp1043
F0.11995715714620477
aF0.3057521882562869
aF1.2319824680328089
abag1
(g25
g3
Ntp1044
Rp1045
(lp1046
F0.27067621808347514
aF0.6532136315647733
aF0.270577436884685
aF0.6533254833166252
ababag1
(g29
g3
Ntp1047
Rp1048
(lp1049
F0.1
aF0.01
aF0.01
abag1
(g33
g3
Ntp1050
Rp1051
(lp1052
I1
aI0
aI0
aI1
abag1
(g37
g3
Ntp1053
Rp1054
(lp1055
I0
aI0
abaI00
a(lp1056
a(lp1057
ag16
ag16
aI00
abag1
(g2
g3
Ntp1058
Rp1059
(lp1060
g1
(g7
g3
Ntp1061
Rp1062
(lp1063
I0
ag1
(g11
g3
Ntp1064
Rp1065
(lp1066
I0
aI0
abag15
abag16
aI36
aI0
aI0
ag1
(g17
g3
Ntp1067
Rp1068
(lp1069
g1
(g21
g3
Ntp1070
Rp1071
(lp1072
F0.12002377960889817
aF0.3604074778848476
aF1.3639271993416617
abag1
(g25
g3
Ntp1073
Rp1074
(lp1075
F0.500038929371536
aF0.4999687573815264
aF0.49990997250545993
aF0.5000823233677937
ababag1
(g29
g3
Ntp1076
Rp1077
(lp1078
F0.1
aF0.01
aF0.01
abag1
(g33
g3
Ntp1079
Rp1080
(lp1081
I1
aI0
aI0
aI1
abag1
(g37
g3
Ntp1082
Rp1083
(lp1084
I0
aI0
abaI00
a(lp1085
a(lp1086
ag16
ag16
aI00
abag1
(g2
g3
Ntp1087
Rp1088
(lp1089
g1
(g7
g3
Ntp1090
Rp1091
(lp1092
I0
ag1
(g11
g3
Ntp1093
Rp1094
(lp1095
I0
aI0
abag15
abag16
aI37
aI0
aI0
ag1
(g17
g3
Ntp1096
Rp1097
(lp1098
g1
(g21
g3
Ntp1099
Rp1100
(lp1101
F0.12007493412721572
aF0.3057484735210052
aF1.4959055439264088
abag1
(g25
g3
Ntp1102
Rp1103
(lp1104
F0.6533355372361292
aF0.2705716945551281
aF0.653203791713418
aF0.2706814370827052
ababag1
(g29
g3
Ntp1105
Rp1106
(lp1107
F0.1
aF0.01
aF0.01
abag1
(g33
g3
Ntp1108
Rp1109
(lp1110
I1
aI0
aI0
aI1
abag1
(g37
g3
Ntp1111
Rp1112
(lp1113
I0
aI0
abaI00
a(lp1114
a(lp1115
ag16
ag16
aI00
abag1
(g2
g3
Ntp1116
Rp1117
(lp1118
g1
(g7
g3
Ntp1119
Rp1120
(lp1121
I0
ag1
(g11
g3
Ntp1122
Rp1123
(lp1124
I0
aI0
abag15
abag16
aI38
aI0
aI0
ag1
(g17
g3
Ntp1125
Rp1126
(lp1127
g1
(g21
g3
Ntp1128
Rp1129
(lp1130
F0.11985226662265681
aF0.17383573475748812
aF1.5505805487371955
abag1
(g25
g3
Ntp1131
Rp1132
(lp1133
F-0.7071412138658679
aF-0.00011728386668386722
aF-0.7070723321677073
aF8.354472305172036e-05
ababag1
(g29
g3
Ntp1134
Rp1135
(lp1136
F0.1
aF0.01
aF0.01
abag1
(g33
g3
Ntp1137
Rp1138
(lp1139
I1
aI0
aI0
aI1
abag1
(g37
g3
Ntp1140
Rp1141
(lp1142
I0
aI0
abaI00
a(lp1143
a(lp1144
ag16
ag16
aI00
abag1
(g2
g3
Ntp1145
Rp1146
(lp1147
g1
(g7
g3
Ntp1148
Rp1149
(lp1150
I0
ag1
(g11
g3
Ntp1151
Rp1152
(lp1153
I0
aI0
abag15
abag16
aI39
aI0
aI0
ag1
(g17
g3
Ntp1154
Rp1155
(lp1156
g1
(g21
g3
Ntp1157
Rp1158
(lp1159
F0.11982158376445043
aF0.04185404373907662
aF1.4959441117188188
abag1
(g25
g3
Ntp1160
Rp1161
(lp1162
F-0.6532949685466344
aF0.2704422662252571
aF-0.6532899866305714
aF0.2707006798639914
ababag1
(g29
g3
Ntp1163
Rp1164
(lp1165
F0.1
aF0.01
aF0.01
abag1
(g33
g3
Ntp1166
Rp1167
(lp1168
I1
aI0
aI0
aI1
abag1
(g37
g3
Ntp1169
Rp1170
(lp1171
I0
aI0
abaI00
a(lp1172
a(lp1173
ag16
ag16
aI00
abag1
(g2
g3
Ntp1174
Rp1175
(lp1176
g1
(g7
g3
Ntp1177
Rp1178
(lp1179
I0
ag1
(g11
g3
Ntp1180
Rp1181
(lp1182
I0
aI0
abag15
abag16
aI40
aI0
aI0
ag1
(g17
g3
Ntp1183
Rp1184
(lp1185
g1
(g21
g3
Ntp1186
Rp1187
(lp1188
F-0.04731051644360055
aF0.17378354856535794
aF1.1472020516823576
abag1
(g25
g3
Ntp1189
Rp1190
(lp1191
F-0.00013435054733811216
aF0.9238646585431122
aF9.242910973727388e-05
aF0.38271930458471626
ababag1
(g29
g3
Ntp1192
Rp1193
(lp1194
F0.1
aF0.01
aF0.01
abag1
(g33
g3
Ntp1195
Rp1196
(lp1197
I1
aI0
aI1
aI1
abag1
(g37
g3
Ntp1198
Rp1199
(lp1200
I0
aI0
abaI00
a(lp1201
a(lp1202
ag16
ag16
aI00
abag1
(g2
g3
Ntp1203
Rp1204
(lp1205
g1
(g7
g3
Ntp1206
Rp1207
(lp1208
I0
ag1
(g11
g3
Ntp1209
Rp1210
(lp1211
I0
aI0
abag15
abag16
aI41
aI0
aI0
ag1
(g17
g3
Ntp1212
Rp1213
(lp1214
g1
(g21
g3
Ntp1215
Rp1216
(lp1217
F-0.008456641978647213
aF0.3057817790824631
aF1.1858691582537202
abag1
(g25
g3
Ntp1218
Rp1219
(lp1220
F0.353682344002652
aF0.8534905066753072
aF0.14643522791379493
aF0.35358093639469856
ababag1
(g29
g3
Ntp1221
Rp1222
(lp1223
F0.1
aF0.01
aF0.01
abag1
(g33
g3
Ntp1224
Rp1225
(lp1226
I1
aI0
aI1
aI1
abag1
(g37
g3
Ntp1227
Rp1228
(lp1229
I0
aI0
abaI00
a(lp1230
a(lp1231
ag16
ag16
aI00
abag1
(g2
g3
Ntp1232
Rp1233
(lp1234
g1
(g7
g3
Ntp1235
Rp1236
(lp1237
I0
ag1
(g11
g3
Ntp1238
Rp1239
(lp1240
I0
aI0
abag15
abag16
aI42
aI0
aI0
ag1
(g17
g3
Ntp1241
Rp1242
(lp1243
g1
(g21
g3
Ntp1244
Rp1245
(lp1246
F0.08462235606186569
aF0.36046686678317297
aF1.2792014866727197
abag1
(g25
g3
Ntp1247
Rp1248
(lp1249
F0.6531824327529355
aF0.6533783485518714
aF0.27065687613712397
aF0.2705444484484568
ababag1
(g29
g3
Ntp1250
Rp1251
(lp1252
F0.1
aF0.01
aF0.01
abag1
(g33
g3
Ntp1253
Rp1254
(lp1255
I1
aI0
aI1
aI1
abag1
(g37
g3
Ntp1256
Rp1257
(lp1258
I0
aI0
abaI00
a(lp1259
a(lp1260
ag16
ag16
aI00
abag1
(g2
g3
Ntp1261
Rp1262
(lp1263
g1
(g7
g3
Ntp1264
Rp1265
(lp1266
I0
ag1
(g11
g3
Ntp1267
Rp1268
(lp1269
I0
aI0
abag15
abag16
aI43
aI0
aI0
ag1
(g17
g3
Ntp1270
Rp1271
(lp1272
g1
(g21
g3
Ntp1273
Rp1274
(lp1275
F0.17792197335930518
aF0.3058139712040183
aF1.3725141122634659
abag1
(g25
g3
Ntp1276
Rp1277
(lp1278
F0.8534945799175981
aF0.35364732385692965
aF0.35360025387929706
aF0.1464494207452231
ababag1
(g29
g3
Ntp1279
Rp1280
(lp1281
F0.1
aF0.01
aF0.01
abag1
(g33
g3
Ntp1282
Rp1283
(lp1284
I1
aI0
aI1
aI1
abag1
(g37
g3
Ntp1285
Rp1286
(lp1287
I0
aI0
abaI00
a(lp1288
a(lp1289
ag16
ag16
aI00
abag1
(g2
g3
Ntp1290
Rp1291
(lp1292
g1
(g7
g3
Ntp1293
Rp1294
(lp1295
I0
ag1
(g11
g3
Ntp1296
Rp1297
(lp1298
I0
aI0
abag15
abag16
aI44
aI0
aI0
ag1
(g17
g3
Ntp1299
Rp1300
(lp1301
g1
(g21
g3
Ntp1302
Rp1303
(lp1304
F0.21656474000869655
aF0.1738631415759359
aF1.411205204983515
abag1
(g25
g3
Ntp1305
Rp1306
(lp1307
F-0.9238439596079328
aF-0.00017326247863519196
aF-0.38276925877222445
aF5.305668282903683e-05
ababag1
(g29
g3
Ntp1308
Rp1309
(lp1310
F0.1
aF0.01
aF0.01
abag1
(g33
g3
Ntp1311
Rp1312
(lp1313
I1
aI0
aI1
aI1
abag1
(g37
g3
Ntp1314
Rp1315
(lp1316
I0
aI0
abaI00
a(lp1317
a(lp1318
ag16
ag16
aI00
abag1
(g2
g3
Ntp1319
Rp1320
(lp1321
g1
(g7
g3
Ntp1322
Rp1323
(lp1324
I0
ag1
(g11
g3
Ntp1325
Rp1326
(lp1327
I0
aI0
abag15
abag16
aI45
aI0
aI0
ag1
(g17
g3
Ntp1328
Rp1329
(lp1330
g1
(g21
g3
Ntp1331
Rp1332
(lp1333
F0.17812679049462743
aF0.04184205638647644
aF1.3724732790690013
abag1
(g25
g3
Ntp1334
Rp1335
(lp1336
F-0.8536062388894974
aF0.35347667911614766
aF-0.3534772457773128
aF0.1465075525958697
ababag1
(g29
g3
Ntp1337
Rp1338
(lp1339
F0.1
aF0.01
aF0.01
abag1
(g33
g3
Ntp1340
Rp1341
(lp1342
I1
aI0
aI1
aI1
abag1
(g37
g3
Ntp1343
Rp1344
(lp1345
I0
aI0
abaI00
a(lp1346
a(lp1347
ag16
ag16
aI00
abag1
(g2
g3
Ntp1348
Rp1349
(lp1350
g1
(g7
g3
Ntp1351
Rp1352
(lp1353
I0
ag1
(g11
g3
Ntp1354
Rp1355
(lp1356
I0
aI0
abag15
abag16
aI46
aI0
aI0
ag1
(g17
g3
Ntp1357
Rp1358
(lp1359
g1
(g21
g3
Ntp1360
Rp1361
(lp1362
F-0.18670791056871694
aF0.17384917168697306
aF1.2440457536868565
abag1
(g25
g3
Ntp1363
Rp1364
(lp1365
F0.00016053788962181644
aF0.9999999832900884
aF2.722594434273431e-05
aF8.310328974552879e-05
ababag1
(g29
g3
Ntp1366
Rp1367
(lp1368
F0.1
aF0.01
aF0.01
abag1
(g33
g3
Ntp1369
Rp1370
(lp1371
I1
aI1
aI1
aI1
abag1
(g37
g3
Ntp1372
Rp1373
(lp1374
I0
aI0
abaI00
a(lp1375
a(lp1376
ag16
ag16
aI00
abag1
(g2
g3
Ntp1377
Rp1378
(lp1379
g1
(g7
g3
Ntp1380
Rp1381
(lp1382
I0
ag1
(g11
g3
Ntp1383
Rp1384
(lp1385
I0
aI0
abag15
abag16
aI47
aI0
aI0
ag1
(g17
g3
Ntp1386
Rp1387
(lp1388
g1
(g21
g3
Ntp1389
Rp1390
(lp1391
F-0.13183063048681373
aF0.305807013787391
aF1.2440925467724733
abag1
(g25
g3
Ntp1392
Rp1393
(lp1394
F-0.38281716192016046
aF-0.9238241254504292
aF4.2186229940482066e-05
aF6.320969317576227e-05
ababag1
(g29
g3
Ntp1395
Rp1396
(lp1397
F0.1
aF0.01
aF0.01
abag1
(g33
g3
Ntp1398
Rp1399
(lp1400
I1
aI1
aI1
aI1
abag1
(g37
g3
Ntp1401
Rp1402
(lp1403
I0
aI0
abaI00
a(lp1404
a(lp1405
ag16
ag16
aI00
abag1
(g2
g3
Ntp1406
Rp1407
(lp1408
g1
(g7
g3
Ntp1409
Rp1410
(lp1411
I0
ag1
(g11
g3
Ntp1412
Rp1413
(lp1414
I0
aI0
abag15
abag16
aI48
aI0
aI0
ag1
(g17
g3
Ntp1415
Rp1416
(lp1417
g1
(g21
g3
Ntp1418
Rp1419
(lp1420
F-0.00019476645548411315
aF0.3604365285272579
aF1.244076777504709
abag1
(g25
g3
Ntp1421
Rp1422
(lp1423
F0.7069670501686067
aF0.7072464797480502
aF5.857671374127117e-05
aF5.855474521131236e-05
ababag1
(g29
g3
Ntp1424
Rp1425
(lp1426
F0.1
aF0.01
aF0.01
abag1
(g33
g3
Ntp1427
Rp1428
(lp1429
I1
aI1
aI1
aI1
abag1
(g37
g3
Ntp1430
Rp1431
(lp1432
I0
aI0
abaI00
a(lp1433
a(lp1434
ag16
ag16
aI00
abag1
(g2
g3
Ntp1435
Rp1436
(lp1437
g1
(g7
g3
Ntp1438
Rp1439
(lp1440
I0
ag1
(g11
g3
Ntp1441
Rp1442
(lp1443
I0
aI0
abag15
abag16
aI49
aI0
aI0
ag1
(g17
g3
Ntp1444
Rp1445
(lp1446
g1
(g21
g3
Ntp1447
Rp1448
(lp1449
F0.1320681905280672
aF0.30573146035846
aF1.2440725992496373
abag1
(g25
g3
Ntp1450
Rp1451
(lp1452
F0.9239336852355429
aF0.3825526681614207
aF3.1527487052218014e-06
aF3.6874203348492334e-05
ababag1
(g29
g3
Ntp1453
Rp1454
(lp1455
F0.1
aF0.01
aF0.01
abag1
(g33
g3
Ntp1456
Rp1457
(lp1458
I1
aI1
aI1
aI1
abag1
(g37
g3
Ntp1459
Rp1460
(lp1461
I0
aI0
abaI00
a(lp1462
a(lp1463
ag16
ag16
aI00
abag1
(g2
g3
Ntp1464
Rp1465
(lp1466
g1
(g7
g3
Ntp1467
Rp1468
(lp1469
I0
ag1
(g11
g3
Ntp1470
Rp1471
(lp1472
I0
aI0
abag15
abag16
aI50
aI0
aI0
ag1
(g17
g3
Ntp1473
Rp1474
(lp1475
g1
(g21
g3
Ntp1476
Rp1477
(lp1478
F0.18667548620713814
aF0.17385332475797974
aF1.2440377646542278
abag1
(g25
g3
Ntp1479
Rp1480
(lp1481
F0.999999979617616
aF0.00017168995662037833
aF-0.00010450436638593316
aF1.9135407881640937e-05
ababag1
(g29
g3
Ntp1482
Rp1483
(lp1484
F0.1
aF0.01
aF0.01
abag1
(g33
g3
Ntp1485
Rp1486
(lp1487
I1
aI1
aI1
aI1
abag1
(g37
g3
Ntp1488
Rp1489
(lp1490
I0
aI0
abaI00
a(lp1491
a(lp1492
ag16
ag16
aI00
abag1
(g2
g3
Ntp1493
Rp1494
(lp1495
g1
(g7
g3
Ntp1496
Rp1497
(lp1498
I0
ag1
(g11
g3
Ntp1499
Rp1500
(lp1501
I0
aI0
abag15
abag16
aI51
aI0
aI0
ag1
(g17
g3
Ntp1502
Rp1503
(lp1504
g1
(g21
g3
Ntp1505
Rp1506
(lp1507
F-0.17811087266783598
aF0.04175015650860698
aF1.3725036795725494
abag1
(g25
g3
Ntp1508
Rp1509
(lp1510
F0.3536804020231721
aF-0.8534927562020251
aF-0.14642350953647956
aF0.3535823018625485
ababag1
(g29
g3
Ntp1511
Rp1512
(lp1513
F0.1
aF0.01
aF0.01
abag1
(g33
g3
Ntp1514
Rp1515
(lp1516
I0
aI0
aI0
aI1
abag1
(g37
g3
Ntp1517
Rp1518
(lp1519
I0
aI0
abaI00
a(lp1520
a(lp1521
ag16
ag16
aI00
abag1
(g2
g3
Ntp1522
Rp1523
(lp1524
g1
(g7
g3
Ntp1525
Rp1526
(lp1527
I0
ag1
(g11
g3
Ntp1528
Rp1529
(lp1530
I0
aI0
abag15
abag16
aI52
aI0
aI0
ag1
(g17
g3
Ntp1531
Rp1532
(lp1533
g1
(g21
g3
Ntp1534
Rp1535
(lp1536
F-0.21666704384103477
aF0.17373905400913434
aF1.4111953067329723
abag1
(g25
g3
Ntp1537
Rp1538
(lp1539
F9.237448416605619e-05
aF-0.9238527121356241
aF5.960918977289024e-05
aF0.38274816027428615
ababag1
(g29
g3
Ntp1540
Rp1541
(lp1542
F0.1
aF0.01
aF0.01
abag1
(g33
g3
Ntp1543
Rp1544
(lp1545
I0
aI0
aI0
aI1
abag1
(g37
g3
Ntp1546
Rp1547
(lp1548
I0
aI0
abaI00
a(lp1549
a(lp1550
ag16
ag16
aI00
abag1
(g2
g3
Ntp1551
Rp1552
(lp1553
g1
(g7
g3
Ntp1554
Rp1555
(lp1556
I0
ag1
(g11
g3
Ntp1557
Rp1558
(lp1559
I0
aI0
abag15
abag16
aI53
aI0
aI0
ag1
(g17
g3
Ntp1560
Rp1561
(lp1562
g1
(g21
g3
Ntp1563
Rp1564
(lp1565
F-0.17791100890072564
aF0.3058243254470499
aF1.3724997824706635
abag1
(g25
g3
Ntp1566
Rp1567
(lp1568
F-0.3536772706645842
aF-0.8534979949467998
aF0.14642747140066328
aF0.3535711476580788
ababag1
(g29
g3
Ntp1569
Rp1570
(lp1571
F0.1
aF0.01
aF0.01
abag1
(g33
g3
Ntp1572
Rp1573
(lp1574
I0
aI0
aI0
aI1
abag1
(g37
g3
Ntp1575
Rp1576
(lp1577
I0
aI0
abaI00
a(lp1578
a(lp1579
ag16
ag16
aI00
abag1
(g2
g3
Ntp1580
Rp1581
(lp1582
g1
(g7
g3
Ntp1583
Rp1584
(lp1585
I0
ag1
(g11
g3
Ntp1586
Rp1587
(lp1588
I0
aI0
abag15
abag16
aI54
aI0
aI0
ag1
(g17
g3
Ntp1589
Rp1590
(lp1591
g1
(g21
g3
Ntp1592
Rp1593
(lp1594
F-0.08478864782933364
aF0.3604063838496142
aF1.2791959792601573
abag1
(g25
g3
Ntp1595
Rp1596
(lp1597
F-0.6531584703133797
aF-0.6534071245708462
aF0.2706397747972718
aF0.27054991132067746
ababag1
(g29
g3
Ntp1598
Rp1599
(lp1600
F0.1
aF0.01
aF0.01
abag1
(g33
g3
Ntp1601
Rp1602
(lp1603
I0
aI0
aI0
aI1
abag1
(g37
g3
Ntp1604
Rp1605
(lp1606
I0
aI0
abaI00
a(lp1607
a(lp1608
ag16
ag16
aI00
abag1
(g2
g3
Ntp1609
Rp1610
(lp1611
g1
(g7
g3
Ntp1612
Rp1613
(lp1614
I0
ag1
(g11
g3
Ntp1615
Rp1616
(lp1617
I0
aI0
abag15
abag16
aI55
aI0
aI0
ag1
(g17
g3
Ntp1618
Rp1619
(lp1620
g1
(g21
g3
Ntp1621
Rp1622
(lp1623
F0.008501781084776693
aF0.30578003762051065
aF1.1858680480034316
abag1
(g25
g3
Ntp1624
Rp1625
(lp1626
F-0.8535006910210371
aF-0.35369007060935004
aF0.35356310179279377
aF0.14640026444519724
ababag1
(g29
g3
Ntp1627
Rp1628
(lp1629
F0.1
aF0.01
aF0.01
abag1
(g33
g3
Ntp1630
Rp1631
(lp1632
I0
aI0
aI0
aI1
abag1
(g37
g3
Ntp1633
Rp1634
(lp1635
I0
aI0
abaI00
a(lp1636
a(lp1637
ag16
ag16
aI00
abag1
(g2
g3
Ntp1638
Rp1639
(lp1640
g1
(g7
g3
Ntp1641
Rp1642
(lp1643
I0
ag1
(g11
g3
Ntp1644
Rp1645
(lp1646
I0
aI0
abag15
abag16
aI56
aI0
aI0
ag1
(g17
g3
Ntp1647
Rp1648
(lp1649
g1
(g21
g3
Ntp1650
Rp1651
(lp1652
F0.04729626705547503
aF0.17377248249459126
aF1.1472066922277413
abag1
(g25
g3
Ntp1653
Rp1654
(lp1655
F0.923883466148746
aF-0.00010410244868766667
aF-0.38267392141928297
aF2.2907631280497507e-06
ababag1
(g29
g3
Ntp1656
Rp1657
(lp1658
F0.1
aF0.01
aF0.01
abag1
(g33
g3
Ntp1659
Rp1660
(lp1661
I0
aI0
aI0
aI1
abag1
(g37
g3
Ntp1662
Rp1663
(lp1664
I0
aI0
abaI00
a(lp1665
a(lp1666
ag16
ag16
aI00
aba.