ccopy_reg
_reconstructor
p0
(cgeometry_msgs.msg._TransformStamped
TransformStamped
p1
c__builtin__
object
p2
Ntp3
Rp4
(lp5
g0
(cstd_msgs.msg._Header
Header
p6
g2
Ntp7
Rp8
(lp9
I0
ag0
(crospy.rostime
Time
p10
g2
Ntp11
Rp12
(lp13
I0
aI0
abaS'base_link'
p14
abaS'camera_depth_optical_frame'
p15
ag0
(cgeometry_msgs.msg._Transform
Transform
p16
g2
Ntp17
Rp18
(lp19
g0
(cgeometry_msgs.msg._Vector3
Vector3
p20
g2
Ntp21
Rp22
(lp23
F1.1098303780076657
aF0.1649114090900776
aF0.9097465461899312
abag0
(cgeometry_msgs.msg._Quaternion
Quaternion
p24
g2
Ntp25
Rp26
(lp27
F0.3628580647955112
aF0.8581896901310491
aF-0.33520543898578786
aF-0.1395771981377178
ababab.